; Function Attrs: mustprogress nofree norecurse nosync nounwind sspstrong willreturn memory(argmem: write) uwtable
define dso_local void @isa_ext_update_enabled(ptr noundef writeonly captures(none) %cpu, i32 noundef %ext_offset, i1 noundef zeroext %en) local_unnamed_addr #1 {
entry:
  %frombool = zext i1 %en to i8
  %cfg = getelementptr inbounds nuw i8, ptr %cpu, i64 15312
  %idx.ext = zext i32 %ext_offset to i64
  %add.ptr = getelementptr i8, ptr %cfg, i64 %idx.ext
  store i8 %frombool, ptr %add.ptr, align 1
  ret void
}